target datalayout = "e-m:e-p270:32:32-p271:32:32-p272:64:64-i64:64-i128:128-f80:128-n8:16:32:64-S128"
target triple = "x86_64-pc-linux-gnu"

%struct.CVodeMemRec = type { ptr, double, ptr, ptr, i32, i32, double, double, ptr, i32, i32, ptr, ptr, i32, i32, ptr, i32, i32, double, double, ptr, i32, i32, i32, i32, ptr, ptr, ptr, i32, i32, ptr, ptr, ptr, i32, double, i32, i32, double, ptr, ptr, ptr, i32, ptr, ptr, i32, i32, i32, double, ptr, ptr, ptr, [13 x ptr], ptr, ptr, ptr, ptr, ptr, ptr, ptr, ptr, ptr, [13 x ptr], ptr, ptr, ptr, ptr, [13 x ptr], ptr, ptr, ptr, ptr, ptr, i32, [13 x ptr], ptr, ptr, ptr, ptr, ptr, i32, i32, double, i32, i32, i32, i32, i32, double, double, double, double, double, double, double, double, [14 x double], [6 x double], [13 x double], double, double, double, double, double, double, double, double, i32, double, double, i32, double, double, ptr, i32, i64, i32, i32, i32, double, double, double, double, double, double, double, double, double, double, double, double, i64, i32, i64, i64, i64, i64, i64, i64, i64, i64, i64, ptr, i64, i64, ptr, i64, i64, ptr, i64, i64, i64, i64, i64, i64, i32, double, double, double, i64, i64, i64, i64, i64, i64, ptr, i32, ptr, i32, ptr, i32, ptr, i32, i32, i64, i32, ptr, i32, ptr, ptr, ptr, ptr, ptr, ptr, i32, i32, ptr, ptr, ptr, ptr, ptr, i64, double, i32, i32, i64, double, double, double, i32, i32, double, i32, i32, i32, i32, i32, i32, i32, i32, i32, i32, i32, i32, i32, i32, i32, i32, ptr, i64, i32, [6 x [4 x double]], i32, i64, ptr, i32, ptr, ptr, double, double, double, ptr, ptr, ptr, double, double, i32, i32, i64, ptr, i32, ptr, i32, i32, [13 x double], ptr, ptr, ptr, i32, ptr, i32 }

@.str = private unnamed_addr constant [115 x i8] c"generated/home/dtcxzyw/WorkSpace/Projects/compilers/llvm-opt-benchmark/bench/sundials/sundials/src/cvodes/cvodes.c\00", align 1
@.str.4 = private unnamed_addr constant [26 x i8] c"cvode_mem = NULL illegal.\00", align 1
@__func__.CVodeGetSensDky = private unnamed_addr constant [16 x i8] c"CVodeGetSensDky\00", align 1
@.str.63 = private unnamed_addr constant [21 x i8] c"dkyA = NULL illegal.\00", align 1

; Function Attrs: nounwind uwtable
define i32 @CVodeGetSensDky(ptr noundef %0, double noundef %1, i32 noundef %2, ptr noundef %3) #0 {
  %5 = alloca i32, align 4
  %6 = alloca ptr, align 8
  %7 = alloca double, align 8
  %8 = alloca i32, align 4
  %9 = alloca ptr, align 8
  %10 = alloca i32, align 4
  %11 = alloca i32, align 4
  %12 = alloca ptr, align 8
  %13 = alloca i32, align 4
  store ptr %0, ptr %6, align 8, !tbaa !153
  store double %1, ptr %7, align 8, !tbaa !150
  store i32 %2, ptr %8, align 4, !tbaa !3
  store ptr %3, ptr %9, align 8, !tbaa !152
  call void @llvm.lifetime.start.p0(i64 4, ptr %10) #10
  store i32 0, ptr %10, align 4, !tbaa !3
  call void @llvm.lifetime.start.p0(i64 4, ptr %11) #10
  call void @llvm.lifetime.start.p0(i64 8, ptr %12) #10
  %14 = load ptr, ptr %6, align 8, !tbaa !153
  %15 = icmp eq ptr %14, null
  br i1 %15, label %16, label %17

16:                                               ; preds = %4
  call void (ptr, i32, i32, ptr, ptr, ptr, ...) @cvProcessError(ptr noundef null, i32 noundef -21, i32 noundef 4026, ptr noundef @__func__.CVodeGetSensDky, ptr noundef @.str, ptr noundef @.str.4)
  store i32 -21, ptr %5, align 4
  store i32 1, ptr %13, align 4
  br label %50

17:                                               ; preds = %4
  %18 = load ptr, ptr %6, align 8, !tbaa !153
  store ptr %18, ptr %12, align 8, !tbaa !10
  %19 = load ptr, ptr %9, align 8, !tbaa !152
  %20 = icmp eq ptr %19, null
  br i1 %20, label %21, label %23

21:                                               ; preds = %17
  %22 = load ptr, ptr %12, align 8, !tbaa !10
  call void (ptr, i32, i32, ptr, ptr, ptr, ...) @cvProcessError(ptr noundef %22, i32 noundef -26, i32 noundef 4035, ptr noundef @__func__.CVodeGetSensDky, ptr noundef @.str, ptr noundef @.str.63)
  store i32 -26, ptr %5, align 4
  store i32 1, ptr %13, align 4
  br label %50

23:                                               ; preds = %17
  store i32 0, ptr %11, align 4, !tbaa !3
  br label %24

24:                                               ; preds = %45, %23
  %25 = load i32, ptr %11, align 4, !tbaa !3
  %26 = load ptr, ptr %12, align 8, !tbaa !10
  %27 = getelementptr inbounds nuw %struct.CVodeMemRec, ptr %26, i32 0, i32 23
  %28 = load i32, ptr %27, align 8, !tbaa !230
  %29 = icmp slt i32 %25, %28
  br i1 %29, label %30, label %48

30:                                               ; preds = %24
  %31 = load ptr, ptr %6, align 8, !tbaa !153
  %32 = load double, ptr %7, align 8, !tbaa !150
  %33 = load i32, ptr %8, align 4, !tbaa !3
  %34 = load i32, ptr %11, align 4, !tbaa !3
  %35 = load ptr, ptr %9, align 8, !tbaa !152
  %36 = load i32, ptr %11, align 4, !tbaa !3
  %37 = sext i32 %36 to i64
  %38 = getelementptr inbounds ptr, ptr %35, i64 %37
  %39 = load ptr, ptr %38, align 8, !tbaa !151
  %40 = call i32 @CVodeGetSensDky1(ptr noundef %31, double noundef %32, i32 noundef %33, i32 noundef %34, ptr noundef %39)
  store i32 %40, ptr %10, align 4, !tbaa !3
  %41 = load i32, ptr %10, align 4, !tbaa !3
  %42 = icmp ne i32 %41, 0
  br i1 %42, label %43, label %44

43:                                               ; preds = %30
  br label %48

44:                                               ; preds = %30
  br label %45

45:                                               ; preds = %44
  %46 = load i32, ptr %11, align 4, !tbaa !3
  %47 = add nsw i32 %46, 1
  store i32 %47, ptr %11, align 4, !tbaa !3
  br label %24

48:                                               ; preds = %43, %24
  %49 = load i32, ptr %10, align 4, !tbaa !3
  store i32 %49, ptr %5, align 4
  store i32 1, ptr %13, align 4
  br label %50

50:                                               ; preds = %48, %21, %16
  call void @llvm.lifetime.end.p0(i64 8, ptr %12) #10
  call void @llvm.lifetime.end.p0(i64 4, ptr %11) #10
  call void @llvm.lifetime.end.p0(i64 4, ptr %10) #10
  %51 = load i32, ptr %5, align 4
  ret i32 %51
}