; Function Attrs: nounwind uwtable
define range(i32 -45, 1) i32 @CVodeGetSensDky(ptr noundef captures(address_is_null) %0, double noundef %1, i32 noundef %2, ptr noundef readonly captures(address_is_null) %3) local_unnamed_addr #0 {
  %5 = icmp eq ptr %0, null
  br i1 %5, label %6, label %7

6:                                                ; preds = %4
  tail call void (ptr, i32, i32, ptr, ptr, ptr, ...) @cvProcessError(ptr noundef null, i32 noundef -21, i32 noundef 4026, ptr noundef nonnull @__func__.CVodeGetSensDky, ptr noundef nonnull @.str, ptr noundef nonnull @.str.4)
  br label %.loopexit

7:                                                ; preds = %4
  %8 = icmp eq ptr %3, null
  br i1 %8, label %12, label %.preheader

.preheader:                                       ; preds = %7
  %9 = getelementptr inbounds nuw i8, ptr %0, i64 144
  %10 = load i32, ptr %9, align 8, !tbaa !156
  %11 = icmp sgt i32 %10, 0
  br i1 %11, label %.lr.ph, label %.loopexit

12:                                               ; preds = %7
  tail call void (ptr, i32, i32, ptr, ptr, ptr, ...) @cvProcessError(ptr noundef nonnull %0, i32 noundef -26, i32 noundef 4035, ptr noundef nonnull @__func__.CVodeGetSensDky, ptr noundef nonnull @.str, ptr noundef nonnull @.str.63)
  br label %.loopexit

13:                                               ; preds = %.lr.ph
  %indvars.iv.next = add nuw nsw i64 %indvars.iv, 1
  %14 = load i32, ptr %9, align 8, !tbaa !156
  %15 = sext i32 %14 to i64
  %16 = icmp slt i64 %indvars.iv.next, %15
  br i1 %16, label %.lr.ph, label %.loopexit

.lr.ph:                                           ; preds = %.preheader, %13
  %indvars.iv = phi i64 [ %indvars.iv.next, %13 ], [ 0, %.preheader ]
  %17 = getelementptr inbounds nuw ptr, ptr %3, i64 %indvars.iv
  %18 = load ptr, ptr %17, align 8, !tbaa !65
  %19 = trunc nuw nsw i64 %indvars.iv to i32
  %20 = tail call i32 @CVodeGetSensDky1(ptr noundef nonnull %0, double noundef %1, i32 noundef %2, i32 noundef %19, ptr noundef %18)
  %.not = icmp eq i32 %20, 0
  br i1 %.not, label %13, label %.loopexit

.loopexit:                                        ; preds = %.lr.ph, %13, %.preheader, %12, %6
  %.0 = phi i32 [ -21, %6 ], [ -26, %12 ], [ 0, %.preheader ], [ %20, %.lr.ph ], [ 0, %13 ]
  ret i32 %.0
}